target datalayout = "e-m:e-p270:32:32-p271:32:32-p272:64:64-i64:64-i128:128-f80:128-n8:16:32:64-S128"
target triple = "x86_64-pc-linux-gnu"

%class.QString = type { %struct.QArrayDataPointer }
%struct.QArrayDataPointer = type { ptr, ptr, i64 }
%struct.QMetaObject = type { %"struct.QMetaObject::Data" }
%"struct.QMetaObject::Data" = type { %"struct.QMetaObject::SuperData", ptr, ptr, ptr, ptr, ptr, ptr }
%"struct.QMetaObject::SuperData" = type { ptr }
%class.QEvent = type { ptr, i16, i8, i8, i8, i8, i16 }
%class.QFlags = type { i32 }
%class.QDropEvent = type { %class.QEvent, %class.QPointF, %class.QFlags.17, %class.QFlags, %class.QFlags.18, i32, i32, ptr }
%class.QPointF = type { double, double }
%class.QFlags.17 = type { i32 }
%class.QFlags.18 = type { i32 }

@_ZN17WiresharkMimeData21DisplayFilterMimeTypeE = external global %class.QString, align 8
@_ZN20ToolbarEntryMimeData16staticMetaObjectE = external global %struct.QMetaObject, align 8

; Function Attrs: mustprogress nounwind uwtable
define linkonce_odr void @_ZN6QEvent6ignoreEv(ptr noundef nonnull align 8 dereferenceable(16) %0) #2 comdat align 2 {
  %2 = alloca ptr, align 8
  store ptr %0, ptr %2, align 8
  %3 = load ptr, ptr %2, align 8
  %4 = getelementptr inbounds %class.QEvent, ptr %3, i32 0, i32 4
  store i8 0, ptr %4, align 4
  ret void
}

; Function Attrs: mustprogress nounwind uwtable
define linkonce_odr void @_ZN6QEvent6acceptEv(ptr noundef nonnull align 8 dereferenceable(16) %0) #2 comdat align 2 {
  %2 = alloca ptr, align 8
  store ptr %0, ptr %2, align 8
  %3 = load ptr, ptr %2, align 8
  %4 = getelementptr inbounds %class.QEvent, ptr %3, i32 0, i32 4
  store i8 1, ptr %4, align 4
  ret void
}

; Function Attrs: mustprogress uwtable
define linkonce_odr void @_ZN14QDragMoveEvent6ignoreEv(ptr noundef nonnull align 8 dereferenceable(80) %0) #1 comdat align 2 {
  %2 = alloca ptr, align 8
  store ptr %0, ptr %2, align 8
  %3 = load ptr, ptr %2, align 8
  call void @_ZN6QEvent6ignoreEv(ptr noundef nonnull align 8 dereferenceable(16) %3)
  ret void
}

; Function Attrs: mustprogress uwtable
define linkonce_odr void @_ZN10QDropEvent20acceptProposedActionEv(ptr noundef nonnull align 8 dereferenceable(64) %0) #1 comdat align 2 {
  %2 = alloca ptr, align 8
  store ptr %0, ptr %2, align 8
  %3 = load ptr, ptr %2, align 8
  %4 = getelementptr inbounds %class.QDropEvent, ptr %3, i32 0, i32 6
  %5 = load i32, ptr %4, align 8
  %6 = getelementptr inbounds %class.QDropEvent, ptr %3, i32 0, i32 5
  store i32 %5, ptr %6, align 4
  call void @_ZN6QEvent6acceptEv(ptr noundef nonnull align 8 dereferenceable(16) %3)
  ret void
}

; Function Attrs: mustprogress uwtable
define linkonce_odr void @_ZN14QDragMoveEvent6acceptEv(ptr noundef nonnull align 8 dereferenceable(80) %0) #1 comdat align 2 {
  %2 = alloca ptr, align 8
  store ptr %0, ptr %2, align 8
  %3 = load ptr, ptr %2, align 8
  call void @_ZN6QEvent6acceptEv(ptr noundef nonnull align 8 dereferenceable(16) %3)
  ret void
}

; Function Attrs: mustprogress uwtable
define linkonce_odr noundef ptr @_Z12qobject_castIPK20ToolbarEntryMimeDataET_PK7QObject(ptr noundef %0) #1 comdat {
  %2 = alloca ptr, align 8
  store ptr %0, ptr %2, align 8
  %3 = load ptr, ptr %2, align 8
  %4 = call noundef ptr @_ZNK11QMetaObject4castEPK7QObject(ptr noundef nonnull align 8 dereferenceable(56) @_ZN20ToolbarEntryMimeData16staticMetaObjectE, ptr noundef %3)
  ret ptr %4
}

; Function Attrs: mustprogress nounwind uwtable
define linkonce_odr noundef ptr @_ZNK10QDropEvent8mimeDataEv(ptr noundef nonnull align 8 dereferenceable(64) %0) #2 comdat align 2 {
  %2 = alloca ptr, align 8
  store ptr %0, ptr %2, align 8
  %3 = load ptr, ptr %2, align 8
  %4 = getelementptr inbounds %class.QDropEvent, ptr %3, i32 0, i32 7
  %5 = load ptr, ptr %4, align 8
  ret ptr %5
}

; Function Attrs: mustprogress uwtable
define void @_ZN17DisplayFilterEdit13dragMoveEventEP14QDragMoveEvent(ptr noundef nonnull align 8 dereferenceable(352) %0, ptr noundef %1) unnamed_addr #1 align 2 {
  %3 = alloca ptr, align 8
  %4 = alloca ptr, align 8
  store ptr %0, ptr %3, align 8
  store ptr %1, ptr %4, align 8
  %5 = load ptr, ptr %3, align 8
  %6 = load ptr, ptr %4, align 8
  %7 = icmp ne ptr %6, null
  br i1 %7, label %8, label %12

8:                                                ; preds = %2
  %9 = load ptr, ptr %4, align 8
  %10 = call noundef ptr @_ZNK10QDropEvent8mimeDataEv(ptr noundef nonnull align 8 dereferenceable(64) %9)
  %11 = icmp ne ptr %10, null
  br i1 %11, label %13, label %12

12:                                               ; preds = %8, %2
  br label %37

13:                                               ; preds = %8
  %14 = load ptr, ptr %4, align 8
  %15 = call noundef ptr @_ZNK10QDropEvent8mimeDataEv(ptr noundef nonnull align 8 dereferenceable(64) %14)
  %16 = call noundef ptr @_Z12qobject_castIPK20ToolbarEntryMimeDataET_PK7QObject(ptr noundef %15)
  %17 = icmp ne ptr %16, null
  br i1 %17, label %25, label %18

18:                                               ; preds = %13
  %19 = load ptr, ptr %4, align 8
  %20 = call noundef ptr @_ZNK10QDropEvent8mimeDataEv(ptr noundef nonnull align 8 dereferenceable(64) %19)
  %21 = load ptr, ptr %20, align 8
  %22 = getelementptr inbounds ptr, ptr %21, i64 12
  %23 = load ptr, ptr %22, align 8
  %24 = call noundef zeroext i1 %23(ptr noundef nonnull align 8 dereferenceable(16) %20, ptr noundef nonnull align 8 dereferenceable(24) @_ZN17WiresharkMimeData21DisplayFilterMimeTypeE)
  br i1 %24, label %25, label %35

25:                                               ; preds = %18, %13
  %26 = load ptr, ptr %4, align 8
  %27 = call noundef ptr @_ZNK10QDropEvent6sourceEv(ptr noundef nonnull align 8 dereferenceable(64) %26)
  %28 = icmp ne ptr %27, %5
  br i1 %28, label %29, label %32

29:                                               ; preds = %25
  %30 = load ptr, ptr %4, align 8
  call void @_ZN10QDropEvent13setDropActionEN2Qt10DropActionE(ptr noundef nonnull align 8 dereferenceable(64) %30, i32 noundef 1)
  %31 = load ptr, ptr %4, align 8
  call void @_ZN14QDragMoveEvent6acceptEv(ptr noundef nonnull align 8 dereferenceable(80) %31)
  br label %34

32:                                               ; preds = %25
  %33 = load ptr, ptr %4, align 8
  call void @_ZN10QDropEvent20acceptProposedActionEv(ptr noundef nonnull align 8 dereferenceable(64) %33)
  br label %34

34:                                               ; preds = %32, %29
  br label %37

35:                                               ; preds = %18
  %36 = load ptr, ptr %4, align 8
  call void @_ZN14QDragMoveEvent6ignoreEv(ptr noundef nonnull align 8 dereferenceable(80) %36)
  br label %37

37:                                               ; preds = %35, %34, %12
  ret void
}